
DIO_Driver.elf:     file format elf32-avr

Sections:
Idx Name          Size      VMA       LMA       File off  Algn
  0 .text         00000304  00000000  00000000  00000054  2**1
                  CONTENTS, ALLOC, LOAD, READONLY, CODE
  1 .data         00000000  00800060  00800060  00000358  2**0
                  CONTENTS, ALLOC, LOAD, DATA
  2 .comment      00000030  00000000  00000000  00000358  2**0
                  CONTENTS, READONLY
  3 .note.gnu.avr.deviceinfo 0000003c  00000000  00000000  00000388  2**2
                  CONTENTS, READONLY
  4 .debug_info   000004e6  00000000  00000000  000003c4  2**0
                  CONTENTS, READONLY, DEBUGGING
  5 .debug_abbrev 000004a3  00000000  00000000  000008aa  2**0
                  CONTENTS, READONLY, DEBUGGING
  6 .debug_line   00000115  00000000  00000000  00000d4d  2**0
                  CONTENTS, READONLY, DEBUGGING
  7 .debug_str    00000196  00000000  00000000  00000e62  2**0
                  CONTENTS, READONLY, DEBUGGING

Disassembly of section .text:

00000000 <__vectors>:
   0:	0c 94 2a 00 	jmp	0x54	; 0x54 <__ctors_end>
   4:	0c 94 34 00 	jmp	0x68	; 0x68 <__bad_interrupt>
   8:	0c 94 34 00 	jmp	0x68	; 0x68 <__bad_interrupt>
   c:	0c 94 34 00 	jmp	0x68	; 0x68 <__bad_interrupt>
  10:	0c 94 34 00 	jmp	0x68	; 0x68 <__bad_interrupt>
  14:	0c 94 34 00 	jmp	0x68	; 0x68 <__bad_interrupt>
  18:	0c 94 34 00 	jmp	0x68	; 0x68 <__bad_interrupt>
  1c:	0c 94 34 00 	jmp	0x68	; 0x68 <__bad_interrupt>
  20:	0c 94 34 00 	jmp	0x68	; 0x68 <__bad_interrupt>
  24:	0c 94 34 00 	jmp	0x68	; 0x68 <__bad_interrupt>
  28:	0c 94 34 00 	jmp	0x68	; 0x68 <__bad_interrupt>
  2c:	0c 94 34 00 	jmp	0x68	; 0x68 <__bad_interrupt>
  30:	0c 94 34 00 	jmp	0x68	; 0x68 <__bad_interrupt>
  34:	0c 94 34 00 	jmp	0x68	; 0x68 <__bad_interrupt>
  38:	0c 94 34 00 	jmp	0x68	; 0x68 <__bad_interrupt>
  3c:	0c 94 34 00 	jmp	0x68	; 0x68 <__bad_interrupt>
  40:	0c 94 34 00 	jmp	0x68	; 0x68 <__bad_interrupt>
  44:	0c 94 34 00 	jmp	0x68	; 0x68 <__bad_interrupt>
  48:	0c 94 34 00 	jmp	0x68	; 0x68 <__bad_interrupt>
  4c:	0c 94 34 00 	jmp	0x68	; 0x68 <__bad_interrupt>
  50:	0c 94 34 00 	jmp	0x68	; 0x68 <__bad_interrupt>

00000054 <__ctors_end>:
  54:	11 24       	eor	r1, r1
  56:	1f be       	out	0x3f, r1	; 63
  58:	cf e5       	ldi	r28, 0x5F	; 95
  5a:	d8 e0       	ldi	r29, 0x08	; 8
  5c:	de bf       	out	0x3e, r29	; 62
  5e:	cd bf       	out	0x3d, r28	; 61
  60:	0e 94 ce 00 	call	0x19c	; 0x19c <main>
  64:	0c 94 80 01 	jmp	0x300	; 0x300 <_exit>

00000068 <__bad_interrupt>:
  68:	0c 94 00 00 	jmp	0	; 0x0 <__vectors>

0000006c <DIO_init>:
  6c:	0f 93       	push	r16
  6e:	1f 93       	push	r17
  70:	cf 93       	push	r28
  72:	df 93       	push	r29
  74:	ec 01       	movw	r28, r24
  76:	40 e0       	ldi	r20, 0x00	; 0
  78:	50 e0       	ldi	r21, 0x00	; 0
  7a:	01 e0       	ldi	r16, 0x01	; 1
  7c:	10 e0       	ldi	r17, 0x00	; 0
  7e:	74 2f       	mov	r23, r20
  80:	98 01       	movw	r18, r16
  82:	04 2e       	mov	r0, r20
  84:	01 c0       	rjmp	.+2      	; 0x88 <DIO_init+0x1c>
  86:	22 0f       	add	r18, r18
  88:	0a 94       	dec	r0
  8a:	ea f7       	brpl	.-6      	; 0x86 <DIO_init+0x1a>
  8c:	62 2f       	mov	r22, r18
  8e:	60 95       	com	r22
  90:	de 01       	movw	r26, r28
  92:	a4 0f       	add	r26, r20
  94:	b5 1f       	adc	r27, r21
  96:	ea e3       	ldi	r30, 0x3A	; 58
  98:	f0 e0       	ldi	r31, 0x00	; 0
  9a:	9c 91       	ld	r25, X
  9c:	80 81       	ld	r24, Z
  9e:	99 23       	and	r25, r25
  a0:	49 f0       	breq	.+18     	; 0xb4 <DIO_init+0x48>
  a2:	29 2f       	mov	r18, r25
  a4:	07 2e       	mov	r0, r23
  a6:	01 c0       	rjmp	.+2      	; 0xaa <DIO_init+0x3e>
  a8:	22 0f       	add	r18, r18
  aa:	0a 94       	dec	r0
  ac:	ea f7       	brpl	.-6      	; 0xa8 <DIO_init+0x3c>
  ae:	28 2b       	or	r18, r24
  b0:	20 83       	st	Z, r18
  b2:	02 c0       	rjmp	.+4      	; 0xb8 <DIO_init+0x4c>
  b4:	86 23       	and	r24, r22
  b6:	80 83       	st	Z, r24
  b8:	18 96       	adiw	r26, 0x08	; 8
  ba:	33 97       	sbiw	r30, 0x03	; 3
  bc:	ee 32       	cpi	r30, 0x2E	; 46
  be:	f1 05       	cpc	r31, r1
  c0:	61 f7       	brne	.-40     	; 0x9a <DIO_init+0x2e>
  c2:	4f 5f       	subi	r20, 0xFF	; 255
  c4:	5f 4f       	sbci	r21, 0xFF	; 255
  c6:	48 30       	cpi	r20, 0x08	; 8
  c8:	51 05       	cpc	r21, r1
  ca:	c9 f6       	brne	.-78     	; 0x7e <DIO_init+0x12>
  cc:	df 91       	pop	r29
  ce:	cf 91       	pop	r28
  d0:	1f 91       	pop	r17
  d2:	0f 91       	pop	r16
  d4:	08 95       	ret

000000d6 <DIO_write>:
  d6:	cf 93       	push	r28
  d8:	df 93       	push	r29
  da:	1f 92       	push	r1
  dc:	cd b7       	in	r28, 0x3d	; 61
  de:	de b7       	in	r29, 0x3e	; 62
  e0:	89 83       	std	Y+1, r24	; 0x01
  e2:	89 81       	ldd	r24, Y+1	; 0x01
  e4:	ea e3       	ldi	r30, 0x3A	; 58
  e6:	f0 e0       	ldi	r31, 0x00	; 0
  e8:	93 e0       	ldi	r25, 0x03	; 3
  ea:	89 9f       	mul	r24, r25
  ec:	e0 19       	sub	r30, r0
  ee:	f1 09       	sbc	r31, r1
  f0:	11 24       	eor	r1, r1
  f2:	80 81       	ld	r24, Z
  f4:	90 e0       	ldi	r25, 0x00	; 0
  f6:	06 2e       	mov	r0, r22
  f8:	02 c0       	rjmp	.+4      	; 0xfe <DIO_write+0x28>
  fa:	95 95       	asr	r25
  fc:	87 95       	ror	r24
  fe:	0a 94       	dec	r0
 100:	e2 f7       	brpl	.-8      	; 0xfa <DIO_write+0x24>
 102:	80 ff       	sbrs	r24, 0
 104:	16 c0       	rjmp	.+44     	; 0x132 <DIO_write+0x5c>
 106:	89 81       	ldd	r24, Y+1	; 0x01
 108:	eb e3       	ldi	r30, 0x3B	; 59
 10a:	f0 e0       	ldi	r31, 0x00	; 0
 10c:	93 e0       	ldi	r25, 0x03	; 3
 10e:	89 9f       	mul	r24, r25
 110:	e0 19       	sub	r30, r0
 112:	f1 09       	sbc	r31, r1
 114:	11 24       	eor	r1, r1
 116:	20 81       	ld	r18, Z
 118:	81 e0       	ldi	r24, 0x01	; 1
 11a:	90 e0       	ldi	r25, 0x00	; 0
 11c:	01 c0       	rjmp	.+2      	; 0x120 <DIO_write+0x4a>
 11e:	88 0f       	add	r24, r24
 120:	6a 95       	dec	r22
 122:	ea f7       	brpl	.-6      	; 0x11e <DIO_write+0x48>
 124:	44 23       	and	r20, r20
 126:	11 f0       	breq	.+4      	; 0x12c <DIO_write+0x56>
 128:	82 2b       	or	r24, r18
 12a:	02 c0       	rjmp	.+4      	; 0x130 <DIO_write+0x5a>
 12c:	80 95       	com	r24
 12e:	82 23       	and	r24, r18
 130:	80 83       	st	Z, r24
 132:	0f 90       	pop	r0
 134:	df 91       	pop	r29
 136:	cf 91       	pop	r28
 138:	08 95       	ret

0000013a <DIO_read>:
 13a:	cf 93       	push	r28
 13c:	df 93       	push	r29
 13e:	1f 92       	push	r1
 140:	cd b7       	in	r28, 0x3d	; 61
 142:	de b7       	in	r29, 0x3e	; 62
 144:	89 83       	std	Y+1, r24	; 0x01
 146:	89 81       	ldd	r24, Y+1	; 0x01
 148:	e9 e3       	ldi	r30, 0x39	; 57
 14a:	f0 e0       	ldi	r31, 0x00	; 0
 14c:	93 e0       	ldi	r25, 0x03	; 3
 14e:	89 9f       	mul	r24, r25
 150:	e0 19       	sub	r30, r0
 152:	f1 09       	sbc	r31, r1
 154:	11 24       	eor	r1, r1
 156:	20 81       	ld	r18, Z
 158:	81 e0       	ldi	r24, 0x01	; 1
 15a:	90 e0       	ldi	r25, 0x00	; 0
 15c:	01 c0       	rjmp	.+2      	; 0x160 <DIO_read+0x26>
 15e:	88 0f       	add	r24, r24
 160:	6a 95       	dec	r22
 162:	ea f7       	brpl	.-6      	; 0x15e <DIO_read+0x24>
 164:	82 23       	and	r24, r18
 166:	0f 90       	pop	r0
 168:	df 91       	pop	r29
 16a:	cf 91       	pop	r28
 16c:	08 95       	ret

0000016e <DIO_toggle>:
 16e:	1f 93       	push	r17
 170:	cf 93       	push	r28
 172:	df 93       	push	r29
 174:	1f 92       	push	r1
 176:	cd b7       	in	r28, 0x3d	; 61
 178:	de b7       	in	r29, 0x3e	; 62
 17a:	89 83       	std	Y+1, r24	; 0x01
 17c:	16 2f       	mov	r17, r22
 17e:	89 81       	ldd	r24, Y+1	; 0x01
 180:	0e 94 9d 00 	call	0x13a	; 0x13a <DIO_read>
 184:	99 81       	ldd	r25, Y+1	; 0x01
 186:	41 e0       	ldi	r20, 0x01	; 1
 188:	81 11       	cpse	r24, r1
 18a:	40 e0       	ldi	r20, 0x00	; 0
 18c:	61 2f       	mov	r22, r17
 18e:	89 2f       	mov	r24, r25
 190:	0f 90       	pop	r0
 192:	df 91       	pop	r29
 194:	cf 91       	pop	r28
 196:	1f 91       	pop	r17
 198:	0c 94 6b 00 	jmp	0xd6	; 0xd6 <DIO_write>

0000019c <main>:
 19c:	cf 93       	push	r28
 19e:	df 93       	push	r29
 1a0:	cd b7       	in	r28, 0x3d	; 61
 1a2:	de b7       	in	r29, 0x3e	; 62
 1a4:	a0 97       	sbiw	r28, 0x20	; 32
 1a6:	0f b6       	in	r0, 0x3f	; 63
 1a8:	f8 94       	cli
 1aa:	de bf       	out	0x3e, r29	; 62
 1ac:	0f be       	out	0x3f, r0	; 63
 1ae:	cd bf       	out	0x3d, r28	; 61
 1b0:	2f ef       	ldi	r18, 0xFF	; 255
 1b2:	8f e8       	ldi	r24, 0x8F	; 143
 1b4:	91 e0       	ldi	r25, 0x01	; 1
 1b6:	21 50       	subi	r18, 0x01	; 1
 1b8:	80 40       	sbci	r24, 0x00	; 0
 1ba:	90 40       	sbci	r25, 0x00	; 0
 1bc:	e1 f7       	brne	.-8      	; 0x1b6 <main+0x1a>
 1be:	00 c0       	rjmp	.+0      	; 0x1c0 <main+0x24>
 1c0:	00 00       	nop
 1c2:	8e 01       	movw	r16, r28
 1c4:	0f 5f       	subi	r16, 0xFF	; 255
 1c6:	1f 4f       	sbci	r17, 0xFF	; 255
 1c8:	6e 01       	movw	r12, r28
 1ca:	21 e2       	ldi	r18, 0x21	; 33
 1cc:	c2 0e       	add	r12, r18
 1ce:	d1 1c       	adc	r13, r1
 1d0:	58 01       	movw	r10, r16
 1d2:	48 01       	movw	r8, r16
 1d4:	77 24       	eor	r7, r7
 1d6:	73 94       	inc	r7
 1d8:	e1 2c       	mov	r14, r1
 1da:	f1 2c       	mov	r15, r1
 1dc:	8f e3       	ldi	r24, 0x3F	; 63
 1de:	9f e1       	ldi	r25, 0x1F	; 31
 1e0:	01 97       	sbiw	r24, 0x01	; 1
 1e2:	f1 f7       	brne	.-4      	; 0x1e0 <main+0x44>
 1e4:	00 c0       	rjmp	.+0      	; 0x1e6 <main+0x4a>
 1e6:	00 00       	nop
 1e8:	f5 01       	movw	r30, r10
 1ea:	ee 0d       	add	r30, r14
 1ec:	ff 1d       	adc	r31, r15
 1ee:	70 82       	st	Z, r7
 1f0:	c8 01       	movw	r24, r16
 1f2:	0e 94 36 00 	call	0x6c	; 0x6c <DIO_init>
 1f6:	9f ef       	ldi	r25, 0xFF	; 255
 1f8:	e9 1a       	sub	r14, r25
 1fa:	f9 0a       	sbc	r15, r25
 1fc:	28 e0       	ldi	r18, 0x08	; 8
 1fe:	e2 16       	cp	r14, r18
 200:	f1 04       	cpc	r15, r1
 202:	61 f7       	brne	.-40     	; 0x1dc <main+0x40>
 204:	88 e0       	ldi	r24, 0x08	; 8
 206:	a8 0e       	add	r10, r24
 208:	b1 1c       	adc	r11, r1
 20a:	ac 14       	cp	r10, r12
 20c:	bd 04       	cpc	r11, r13
 20e:	21 f7       	brne	.-56     	; 0x1d8 <main+0x3c>
 210:	e1 2c       	mov	r14, r1
 212:	f1 2c       	mov	r15, r1
 214:	8f e3       	ldi	r24, 0x3F	; 63
 216:	9f e1       	ldi	r25, 0x1F	; 31
 218:	01 97       	sbiw	r24, 0x01	; 1
 21a:	f1 f7       	brne	.-4      	; 0x218 <main+0x7c>
 21c:	00 c0       	rjmp	.+0      	; 0x21e <main+0x82>
 21e:	00 00       	nop
 220:	41 e0       	ldi	r20, 0x01	; 1
 222:	6f 2d       	mov	r22, r15
 224:	8e 2d       	mov	r24, r14
 226:	0e 94 6b 00 	call	0xd6	; 0xd6 <DIO_write>
 22a:	f3 94       	inc	r15
 22c:	98 e0       	ldi	r25, 0x08	; 8
 22e:	f9 12       	cpse	r15, r25
 230:	f1 cf       	rjmp	.-30     	; 0x214 <main+0x78>
 232:	e3 94       	inc	r14
 234:	24 e0       	ldi	r18, 0x04	; 4
 236:	e2 12       	cpse	r14, r18
 238:	ec cf       	rjmp	.-40     	; 0x212 <main+0x76>
 23a:	e1 2c       	mov	r14, r1
 23c:	f1 2c       	mov	r15, r1
 23e:	8f e3       	ldi	r24, 0x3F	; 63
 240:	9f e1       	ldi	r25, 0x1F	; 31
 242:	01 97       	sbiw	r24, 0x01	; 1
 244:	f1 f7       	brne	.-4      	; 0x242 <main+0xa6>
 246:	00 c0       	rjmp	.+0      	; 0x248 <main+0xac>
 248:	00 00       	nop
 24a:	40 e0       	ldi	r20, 0x00	; 0
 24c:	6f 2d       	mov	r22, r15
 24e:	8e 2d       	mov	r24, r14
 250:	0e 94 6b 00 	call	0xd6	; 0xd6 <DIO_write>
 254:	f3 94       	inc	r15
 256:	98 e0       	ldi	r25, 0x08	; 8
 258:	f9 12       	cpse	r15, r25
 25a:	f1 cf       	rjmp	.-30     	; 0x23e <main+0xa2>
 25c:	e3 94       	inc	r14
 25e:	24 e0       	ldi	r18, 0x04	; 4
 260:	e2 12       	cpse	r14, r18
 262:	ec cf       	rjmp	.-40     	; 0x23c <main+0xa0>
 264:	e1 2c       	mov	r14, r1
 266:	f1 2c       	mov	r15, r1
 268:	8f e3       	ldi	r24, 0x3F	; 63
 26a:	9f e1       	ldi	r25, 0x1F	; 31
 26c:	01 97       	sbiw	r24, 0x01	; 1
 26e:	f1 f7       	brne	.-4      	; 0x26c <main+0xd0>
 270:	00 c0       	rjmp	.+0      	; 0x272 <main+0xd6>
 272:	00 00       	nop
 274:	f8 01       	movw	r30, r16
 276:	ee 0d       	add	r30, r14
 278:	ff 1d       	adc	r31, r15
 27a:	10 82       	st	Z, r1
 27c:	c4 01       	movw	r24, r8
 27e:	0e 94 36 00 	call	0x6c	; 0x6c <DIO_init>
 282:	9f ef       	ldi	r25, 0xFF	; 255
 284:	e9 1a       	sub	r14, r25
 286:	f9 0a       	sbc	r15, r25
 288:	28 e0       	ldi	r18, 0x08	; 8
 28a:	e2 16       	cp	r14, r18
 28c:	f1 04       	cpc	r15, r1
 28e:	61 f7       	brne	.-40     	; 0x268 <main+0xcc>
 290:	08 5f       	subi	r16, 0xF8	; 248
 292:	1f 4f       	sbci	r17, 0xFF	; 255
 294:	c0 16       	cp	r12, r16
 296:	d1 06       	cpc	r13, r17
 298:	29 f7       	brne	.-54     	; 0x264 <main+0xc8>
 29a:	8f ef       	ldi	r24, 0xFF	; 255
 29c:	9f e8       	ldi	r25, 0x8F	; 143
 29e:	21 e0       	ldi	r18, 0x01	; 1
 2a0:	81 50       	subi	r24, 0x01	; 1
 2a2:	90 40       	sbci	r25, 0x00	; 0
 2a4:	20 40       	sbci	r18, 0x00	; 0
 2a6:	e1 f7       	brne	.-8      	; 0x2a0 <main+0x104>
 2a8:	00 c0       	rjmp	.+0      	; 0x2aa <main+0x10e>
 2aa:	00 00       	nop
 2ac:	81 e0       	ldi	r24, 0x01	; 1
 2ae:	8a 83       	std	Y+2, r24	; 0x02
 2b0:	8b 83       	std	Y+3, r24	; 0x03
 2b2:	c4 01       	movw	r24, r8
 2b4:	0e 94 36 00 	call	0x6c	; 0x6c <DIO_init>
 2b8:	60 e0       	ldi	r22, 0x00	; 0
 2ba:	82 e0       	ldi	r24, 0x02	; 2
 2bc:	0e 94 9d 00 	call	0x13a	; 0x13a <DIO_read>
 2c0:	88 23       	and	r24, r24
 2c2:	11 f0       	breq	.+4      	; 0x2c8 <main+0x12c>
 2c4:	41 e0       	ldi	r20, 0x01	; 1
 2c6:	01 c0       	rjmp	.+2      	; 0x2ca <main+0x12e>
 2c8:	40 e0       	ldi	r20, 0x00	; 0
 2ca:	61 e0       	ldi	r22, 0x01	; 1
 2cc:	80 e0       	ldi	r24, 0x00	; 0
 2ce:	0e 94 6b 00 	call	0xd6	; 0xd6 <DIO_write>
 2d2:	61 e0       	ldi	r22, 0x01	; 1
 2d4:	80 e0       	ldi	r24, 0x00	; 0
 2d6:	0e 94 9d 00 	call	0x13a	; 0x13a <DIO_read>
 2da:	88 23       	and	r24, r24
 2dc:	59 f0       	breq	.+22     	; 0x2f4 <main+0x158>
 2de:	62 e0       	ldi	r22, 0x02	; 2
 2e0:	80 e0       	ldi	r24, 0x00	; 0
 2e2:	0e 94 b7 00 	call	0x16e	; 0x16e <DIO_toggle>
 2e6:	8f ef       	ldi	r24, 0xFF	; 255
 2e8:	99 ef       	ldi	r25, 0xF9	; 249
 2ea:	01 97       	sbiw	r24, 0x01	; 1
 2ec:	f1 f7       	brne	.-4      	; 0x2ea <main+0x14e>
 2ee:	00 c0       	rjmp	.+0      	; 0x2f0 <main+0x154>
 2f0:	00 00       	nop
 2f2:	e2 cf       	rjmp	.-60     	; 0x2b8 <main+0x11c>
 2f4:	40 e0       	ldi	r20, 0x00	; 0
 2f6:	62 e0       	ldi	r22, 0x02	; 2
 2f8:	80 e0       	ldi	r24, 0x00	; 0
 2fa:	0e 94 6b 00 	call	0xd6	; 0xd6 <DIO_write>
 2fe:	dc cf       	rjmp	.-72     	; 0x2b8 <main+0x11c>

00000300 <_exit>:
 300:	f8 94       	cli

00000302 <__stop_program>:
 302:	ff cf       	rjmp	.-2      	; 0x302 <__stop_program>
